target datalayout = "e-m:e-p270:32:32-p271:32:32-p272:64:64-i64:64-i128:128-f80:128-n8:16:32:64-S128"
target triple = "x86_64-pc-linux-gnu"

%struct.lexbor_bst_entry = type { ptr, ptr, ptr, ptr, ptr, i64 }

; Function Attrs: nounwind uwtable
define hidden ptr @lexbor_bst_search(ptr noundef %0, ptr noundef %1, i64 noundef %2) #0 {
  %4 = alloca ptr, align 8
  %5 = alloca ptr, align 8
  %6 = alloca ptr, align 8
  %7 = alloca i64, align 8
  store ptr %0, ptr %5, align 8
  store ptr %1, ptr %6, align 8
  store i64 %2, ptr %7, align 8
  br label %8

8:                                                ; preds = %34, %3
  %9 = load ptr, ptr %6, align 8
  %10 = icmp ne ptr %9, null
  br i1 %10, label %11, label %35

11:                                               ; preds = %8
  %12 = load ptr, ptr %6, align 8
  %13 = getelementptr inbounds %struct.lexbor_bst_entry, ptr %12, i32 0, i32 5
  %14 = load i64, ptr %13, align 8
  %15 = load i64, ptr %7, align 8
  %16 = icmp eq i64 %14, %15
  br i1 %16, label %17, label %19

17:                                               ; preds = %11
  %18 = load ptr, ptr %6, align 8
  store ptr %18, ptr %4, align 8
  br label %36

19:                                               ; preds = %11
  %20 = load i64, ptr %7, align 8
  %21 = load ptr, ptr %6, align 8
  %22 = getelementptr inbounds %struct.lexbor_bst_entry, ptr %21, i32 0, i32 5
  %23 = load i64, ptr %22, align 8
  %24 = icmp ugt i64 %20, %23
  br i1 %24, label %25, label %29

25:                                               ; preds = %19
  %26 = load ptr, ptr %6, align 8
  %27 = getelementptr inbounds %struct.lexbor_bst_entry, ptr %26, i32 0, i32 1
  %28 = load ptr, ptr %27, align 8
  store ptr %28, ptr %6, align 8
  br label %33

29:                                               ; preds = %19
  %30 = load ptr, ptr %6, align 8
  %31 = getelementptr inbounds %struct.lexbor_bst_entry, ptr %30, i32 0, i32 2
  %32 = load ptr, ptr %31, align 8
  store ptr %32, ptr %6, align 8
  br label %33

33:                                               ; preds = %29, %25
  br label %34

34:                                               ; preds = %33
  br label %8

35:                                               ; preds = %8
  store ptr null, ptr %4, align 8
  br label %36

36:                                               ; preds = %35, %17
  %37 = load ptr, ptr %4, align 8
  ret ptr %37
}