; Function Attrs: nofree norecurse nosync nounwind memory(read, inaccessiblemem: none) uwtable
define hidden ptr @lexbor_bst_search(ptr nocapture noundef readnone %0, ptr noundef readonly %1, i64 noundef %2) local_unnamed_addr #2 {
  %.not11 = icmp eq ptr %1, null
  br i1 %.not11, label %._crit_edge, label %.lr.ph

.lr.ph:                                           ; preds = %3, %7
  %.0812 = phi ptr [ %.1, %7 ], [ %1, %3 ]
  %4 = getelementptr inbounds i8, ptr %.0812, i64 40
  %5 = load i64, ptr %4, align 8
  %6 = icmp eq i64 %5, %2
  br i1 %6, label %._crit_edge, label %7

7:                                                ; preds = %.lr.ph
  %8 = icmp ult i64 %5, %2
  %.1.in.v = select i1 %8, i64 8, i64 16
  %.1.in = getelementptr inbounds i8, ptr %.0812, i64 %.1.in.v
  %.1 = load ptr, ptr %.1.in, align 8
  %.not = icmp eq ptr %.1, null
  br i1 %.not, label %._crit_edge, label %.lr.ph

._crit_edge:                                      ; preds = %.lr.ph, %7, %3
  %.08.lcssa = phi ptr [ null, %3 ], [ null, %7 ], [ %.0812, %.lr.ph ]
  ret ptr %.08.lcssa
}